X.509 Certificate Information:
	Version: 3
	Serial Number (hex): 662778eca63acd900fccf08300bb184799affe5b
	Issuer: CN=Testing Authority
	Validity:
		Not Before: Sun Feb 20 15:21:42 UTC 2022
		Not After: Wed Apr 20 14:21:41 UTC 2022
	Subject: CN=Expired Test User
	Subject Public Key Algorithm: RSA
	Algorithm Security Level: High (3072 bits)
		Modulus (bits 3072):
			00:e0:ca:f6:87:ed:ad:79:b9:23:69:82:c3:bc:0c:48
			19:a6:68:8e:9f:15:8c:82:ea:01:f5:af:40:e5:6e:3d
			1a:dc:1b:eb:2f:ff:8e:b0:9e:f3:6f:d5:81:ac:ed:f6
			de:d4:44:d7:14:20:a0:40:f9:f2:51:37:01:d7:fd:fb
			90:2f:be:be:42:2a:3a:4e:e5:2b:2a:5b:28:d0:7f:40
			1d:dd:8b:37:67:3b:33:d2:b8:7e:40:1d:d0:db:cd:cf
			c6:e1:47:58:0d:88:ee:92:15:41:98:e2:16:9b:21:67
			25:6d:d4:2d:bf:54:cc:b5:e9:67:54:fc:96:61:12:9f
			59:8f:ac:81:95:db:ab:96:18:38:3d:2f:be:b2:93:2f
			73:dd:80:43:72:fe:21:e2:7a:d7:18:3c:a4:89:3c:70
			cd:53:a9:2a:76:39:56:6a:59:8e:9d:a1:e6:5b:a5:18
			91:d6:6e:b0:ab:09:27:46:24:c4:22:6d:7f:1b:f8:4b
			ed:9b:2f:51:50:7e:be:28:5d:31:c7:62:5e:de:55:dc
			fc:fe:41:29:63:16:f4:26:09:7d:dd:74:b8:a0:5a:25
			e7:8e:43:56:3b:7a:f9:9d:f5:27:56:08:f7:9b:4d:35
			3a:0d:0e:14:05:cc:bb:d0:ab:f3:59:be:d6:53:fd:86
			5f:77:e9:e8:47:33:ba:a0:87:ac:a4:36:8f:94:be:7c
			46:76:9b:cf:f7:71:f0:ac:c8:cb:b5:c5:db:d5:ae:34
			b3:1e:95:f0:42:95:5c:8a:66:77:07:82:78:9a:02:f9
			6f:a5:d6:ee:92:df:86:c2:02:a5:fa:7a:a1:85:e3:d5
			95:51:85:71:62:10:7e:4e:d7:b6:82:c6:75:70:a2:ea
			f1:62:51:05:a7:6e:fd:ac:fa:8e:ec:7f:aa:be:37:96
			a3:e8:d8:08:43:db:80:1d:85:de:25:b9:67:8d:d3:48
			19:bd:22:18:fc:0b:fc:d6:99:37:43:31:9d:a6:db:4d
			3b
		Exponent (bits 24):
			01:00:01
	Extensions:
		Basic Constraints (critical):
			Certificate Authority (CA): FALSE
		Subject Alternative Name (not critical):
			RFC822Name: test@xades4j.test
		Key Usage (critical):
			Digital signature.
		Subject Key Identifier (not critical):
			460ce5dace20e609e8752399b87c5c65a56b2b7d
		Authority Key Identifier (not critical):
			2d9102974080012532664e5eb801f54a7dbf8277
	Signature Algorithm: RSA-SHA256
	Signature:
		36:8a:bf:82:b3:97:56:ea:f7:1e:ee:03:9e:8e:d2:16
		41:41:13:57:56:fa:84:16:df:1a:38:c5:49:56:f3:a7
		c7:b1:f7:91:6d:dc:9e:c7:20:b5:36:f2:bd:9a:25:38
		48:e7:2d:22:84:2d:b3:24:34:2a:58:33:56:c0:45:dd
		8b:3c:2d:a9:df:bc:6c:d7:8a:c5:06:c1:b7:d1:47:f9
		02:6f:9d:c8:52:5a:c2:a6:b8:c4:6b:51:ed:68:4a:b3
		14:51:b7:9b:ae:5f:6e:9c:ab:e5:2d:15:05:df:2b:06
		97:91:17:43:0f:51:34:10:a4:60:ef:ee:9f:18:61:ea
		09:b2:c7:6a:39:0f:bf:dc:8f:fe:de:a5:a5:69:01:f7
		0b:b2:55:30:23:f8:81:e4:16:45:13:af:16:24:ef:8d
		e8:52:c4:e9:80:45:a0:6f:eb:eb:6f:51:a3:90:2c:05
		44:ef:b3:77:f7:3a:5c:fd:dc:51:fe:d7:04:ff:75:13
		81:b7:dc:f9:94:92:61:a3:17:7e:74:fc:65:e5:68:fb
		f1:05:7b:d7:15:5e:22:a7:2a:77:81:b2:ee:2e:87:1e
		25:7b:fe:fe:38:e7:9d:11:59:3c:65:72:b8:62:69:ef
		ba:3e:e4:39:c2:1c:f9:2f:91:1d:c7:9d:8d:6e:41:27
		7e:15:75:36:57:f8:cb:66:7b:56:04:54:da:57:6a:03
		a8:58:ff:76:16:7e:72:d7:07:df:e1:ed:c7:75:eb:dc
		c0:f6:1d:ef:42:01:bb:2d:a3:6f:8b:d3:38:0b:7e:2a
		41:04:6a:b1:81:6c:d6:11:62:7c:e6:d1:90:b9:83:71
		8f:68:34:90:6a:7c:c2:01:e3:d4:0d:1f:f0:43:43:ef
		12:4f:7e:1a:6b:c4:5f:3f:62:f5:3c:aa:27:73:22:1a
		a6:cb:31:42:78:f4:b9:6c:87:78:c8:c2:2b:77:05:76
		8d:60:11:60:e5:ab:af:a4:96:dc:c7:fd:56:68:1d:27
Other Information:
	Fingerprint:
		sha1:194bebac711d18677d9b056455ec917b8cbcedd7
		sha256:801ff1608501d7222befb4b92d6817f52202f7575b35cf88092648338eb4864e
	Public Key ID:
		sha1:460ce5dace20e609e8752399b87c5c65a56b2b7d
		sha256:cedfc6597bf6f4ffaebd763a0fb1d48620873d68aebfac3e907a69643d1d12d3
	Public Key PIN:
		pin-sha256:zt/GWXv29P+uvXY6D7HUhiCHPWiuv6w+kHppZD0dEtM=

-----BEGIN CERTIFICATE-----
MIIERTCCAq2gAwIBAgIUZid47KY6zZAPzPCDALsYR5mv/lswDQYJKoZIhvcNAQEL
BQAwHDEaMBgGA1UEAxMRVGVzdGluZyBBdXRob3JpdHkwHhcNMjIwMjIwMTUyMTQy
WhcNMjIwNDIwMTQyMTQxWjAcMRowGAYDVQQDExFFeHBpcmVkIFRlc3QgVXNlcjCC
AaIwDQYJKoZIhvcNAQEBBQADggGPADCCAYoCggGBAODK9oftrXm5I2mCw7wMSBmm
aI6fFYyC6gH1r0Dlbj0a3BvrL/+OsJ7zb9WBrO323tRE1xQgoED58lE3Adf9+5Av
vr5CKjpO5SsqWyjQf0Ad3Ys3Zzsz0rh+QB3Q283PxuFHWA2I7pIVQZjiFpshZyVt
1C2/VMy16WdU/JZhEp9Zj6yBldurlhg4PS++spMvc92AQ3L+IeJ61xg8pIk8cM1T
qSp2OVZqWY6doeZbpRiR1m6wqwknRiTEIm1/G/hL7ZsvUVB+vihdMcdiXt5V3Pz+
QSljFvQmCX3ddLigWiXnjkNWO3r5nfUnVgj3m001Og0OFAXMu9Cr81m+1lP9hl93
6ehHM7qgh6ykNo+UvnxGdpvP93HwrMjLtcXb1a40sx6V8EKVXIpmdweCeJoC+W+l
1u6S34bCAqX6eqGF49WVUYVxYhB+Tte2gsZ1cKLq8WJRBadu/az6jux/qr43lqPo
2AhD24Adhd4luWeN00gZvSIY/Av81pk3QzGdpttNOwIDAQABo38wfTAMBgNVHRMB
Af8EAjAAMBwGA1UdEQQVMBOBEXRlc3RAeGFkZXM0ai50ZXN0MA8GA1UdDwEB/wQF
AwMHgAAwHQYDVR0OBBYEFEYM5drOIOYJ6HUjmbh8XGWlayt9MB8GA1UdIwQYMBaA
FC2RApdAgAElMmZOXrgB9Up9v4J3MA0GCSqGSIb3DQEBCwUAA4IBgQA2ir+Cs5dW
6vce7gOejtIWQUETV1b6hBbfGjjFSVbzp8ex95Ft3J7HILU28r2aJThI5y0ihC2z
JDQqWDNWwEXdizwtqd+8bNeKxQbBt9FH+QJvnchSWsKmuMRrUe1oSrMUUbebrl9u
nKvlLRUF3ysGl5EXQw9RNBCkYO/unxhh6gmyx2o5D7/cj/7epaVpAfcLslUwI/iB
5BZFE68WJO+N6FLE6YBFoG/r629Ro5AsBUTvs3f3Olz93FH+1wT/dROBt9z5lJJh
oxd+dPxl5Wj78QV71xVeIqcqd4Gy7i6HHiV7/v44550RWTxlcrhiae+6PuQ5whz5
L5Edx52NbkEnfhV1Nlf4y2Z7VgRU2ldqA6hY/3YWfnLXB9/h7cd169zA9h3vQgG7
LaNvi9M4C34qQQRqsYFs1hFifObRkLmDcY9oNJBqfMIB49QNH/BDQ+8ST34aa8Rf
P2L1PKoncyIapssxQnj0uWyHeMjCK3cFdo1gEWDlq6+kltzH/VZoHSc=
-----END CERTIFICATE-----
