X.509 Certificate Information:
	Version: 3
	Serial Number (hex): 617cc39f9eb26744f0a690cb1369b8189184496f
	Issuer: CN=Testing Authority
	Validity:
		Not Before: Mon Feb 20 15:21:42 UTC 2040
		Not After: Fri Apr 20 14:21:41 UTC 2040
	Subject: CN=Not-yet-valid Test User
	Subject Public Key Algorithm: RSA
	Algorithm Security Level: High (3072 bits)
		Modulus (bits 3072):
			00:d0:aa:c2:a0:f2:3c:a9:ce:53:3e:92:9f:73:28:ae
			a4:38:42:48:21:5a:dd:a9:4b:47:48:01:c0:f1:7f:9c
			ae:18:cb:ef:b2:9a:4b:d0:32:09:6d:11:73:30:21:03
			3a:9c:b4:d0:43:08:b4:57:22:21:be:11:7f:e6:5a:74
			03:5d:5a:41:9a:c8:48:66:d7:b7:c9:64:7c:6f:ff:88
			24:4e:98:6e:61:31:72:95:94:d8:ab:7f:3b:ac:ff:9c
			4f:de:ae:f5:e2:90:ea:82:99:03:d9:35:2b:17:8a:80
			2e:ed:05:ef:cb:de:4c:71:93:e7:a9:9a:ab:73:b7:52
			26:6d:4d:34:da:50:1a:cc:2f:29:9f:9a:81:a2:39:37
			aa:26:f7:79:f1:d2:b7:91:d4:69:0b:d7:8d:f7:98:75
			32:9e:1b:b5:63:94:5d:25:c2:85:85:f9:6e:e4:d8:83
			bb:b3:8d:50:35:c8:9a:90:56:13:e4:2e:e4:e9:0a:da
			4d:82:e2:33:18:8b:a0:2f:11:bf:a4:29:07:16:8b:82
			e0:89:62:25:e2:9f:25:24:97:43:57:84:c3:c2:64:5e
			40:a4:f8:ca:69:8c:d9:9b:65:d7:34:1f:68:06:d8:14
			2d:87:01:6f:00:e0:cc:4b:63:c9:6e:77:1f:a2:a9:b7
			73:ae:84:d0:6e:46:70:a2:5a:5a:5d:d6:47:1a:66:fa
			e0:ef:57:16:8d:cf:91:6a:d2:e6:d4:68:88:ba:0a:81
			b7:ad:35:5a:eb:3f:3e:ac:01:2d:3f:ef:0f:e8:83:0c
			f3:67:a4:de:d4:49:64:14:c3:bb:f5:1f:b5:6d:57:a4
			74:2d:ec:e1:0d:92:81:d1:d1:f3:5e:ad:8b:e0:9e:ef
			cb:2c:4b:c2:34:81:85:f9:59:b7:b4:b7:a9:22:e9:03
			f8:ff:d4:56:70:05:18:67:97:69:0b:1b:4b:62:95:cb
			eb:23:4a:f7:e4:bb:3c:0a:65:9c:cf:89:4f:65:02:c8
			af
		Exponent (bits 24):
			01:00:01
	Extensions:
		Basic Constraints (critical):
			Certificate Authority (CA): FALSE
		Subject Alternative Name (not critical):
			RFC822Name: test@xades4j.test
		Key Usage (critical):
			Digital signature.
		Subject Key Identifier (not critical):
			2f935ed36f521e975615821f9ad2d7dbea746d15
		Authority Key Identifier (not critical):
			2d9102974080012532664e5eb801f54a7dbf8277
	Signature Algorithm: RSA-SHA256
	Signature:
		3d:69:0f:fc:0c:c7:15:f6:12:34:dc:5b:a0:36:e9:f2
		c9:87:5d:5e:b7:a9:46:4d:61:31:ab:90:a8:bd:62:0e
		21:1a:e0:c2:50:92:6f:ab:0d:1f:9c:c0:76:2e:62:43
		62:dd:09:2b:8c:d9:b1:51:8f:07:97:71:2b:e7:a1:94
		a0:2a:6d:96:82:62:71:e0:57:20:4e:73:88:7a:72:7b
		c4:06:a5:19:8e:86:79:c6:0d:a2:dd:49:4a:19:b6:02
		21:5c:a0:97:55:8e:f3:0f:49:42:46:b1:71:95:32:73
		80:1b:b0:00:54:73:59:3c:3d:8e:fb:b7:33:d1:12:73
		c8:3d:37:f8:9a:25:20:33:e3:f4:39:c2:dd:d0:fc:47
		18:22:60:b7:6f:07:f8:8b:12:32:91:2c:da:be:05:1e
		d8:d4:9e:03:a1:4f:8a:11:6c:ea:99:60:84:bc:93:71
		90:e2:b9:c3:04:a2:2a:ac:83:09:44:2b:c6:c1:53:0d
		de:fd:52:3e:8b:be:88:13:48:c7:b8:98:01:4c:54:08
		18:41:f9:0b:a1:33:a2:59:68:53:dd:13:a4:40:82:c4
		51:50:1f:88:4a:97:07:10:24:6a:aa:3d:71:02:23:42
		2d:0d:71:24:f4:08:0d:c5:2e:08:5a:72:69:6b:e3:0b
		18:f2:90:41:5a:c6:13:89:80:ed:cf:7d:c3:9b:fd:10
		e1:02:bd:84:a8:77:14:a5:54:e1:b5:2a:3b:1b:fa:d5
		7d:77:15:6c:b3:17:79:9a:d1:80:9a:ce:22:b3:78:42
		ba:53:68:6f:cc:29:7c:bf:01:b3:d5:74:57:3c:56:df
		b1:62:81:0b:fd:6e:38:fa:8e:8f:f7:7d:63:e7:ae:b1
		ff:0a:8d:6d:e6:33:91:e8:ca:da:63:e4:cd:74:3c:51
		20:a8:18:4b:8a:d2:19:b5:f9:55:a6:09:3b:4a:73:59
		b8:de:6d:c2:df:e5:cd:5b:06:f8:35:87:cd:70:56:d9
Other Information:
	Fingerprint:
		sha1:cfd96d6ee0ad783b129455d80e3f9680ce487f43
		sha256:0566a55223d13fedfb400e3f5f9fa5ebe205aab748c5cd61e196818167fef490
	Public Key ID:
		sha1:2f935ed36f521e975615821f9ad2d7dbea746d15
		sha256:2a746208e2561e79834e91916f64340089e07db7553dce227e02f489cc7b8658
	Public Key PIN:
		pin-sha256:KnRiCOJWHnmDTpGRb2Q0AIngfbdVPc4ifgL0icx7hlg=

-----BEGIN CERTIFICATE-----
MIIESzCCArOgAwIBAgIUYXzDn56yZ0TwppDLE2m4GJGESW8wDQYJKoZIhvcNAQEL
BQAwHDEaMBgGA1UEAxMRVGVzdGluZyBBdXRob3JpdHkwHhcNNDAwMjIwMTUyMTQy
WhcNNDAwNDIwMTQyMTQxWjAiMSAwHgYDVQQDExdOb3QteWV0LXZhbGlkIFRlc3Qg
VXNlcjCCAaIwDQYJKoZIhvcNAQEBBQADggGPADCCAYoCggGBANCqwqDyPKnOUz6S
n3MorqQ4QkghWt2pS0dIAcDxf5yuGMvvsppL0DIJbRFzMCEDOpy00EMItFciIb4R
f+ZadANdWkGayEhm17fJZHxv/4gkTphuYTFylZTYq387rP+cT96u9eKQ6oKZA9k1
KxeKgC7tBe/L3kxxk+epmqtzt1ImbU002lAazC8pn5qBojk3qib3efHSt5HUaQvX
jfeYdTKeG7VjlF0lwoWF+W7k2IO7s41QNciakFYT5C7k6QraTYLiMxiLoC8Rv6Qp
BxaLguCJYiXinyUkl0NXhMPCZF5ApPjKaYzZm2XXNB9oBtgULYcBbwDgzEtjyW53
H6Kpt3OuhNBuRnCiWlpd1kcaZvrg71cWjc+RatLm1GiIugqBt601Wus/PqwBLT/v
D+iDDPNnpN7USWQUw7v1H7VtV6R0LezhDZKB0dHzXq2L4J7vyyxLwjSBhflZt7S3
qSLpA/j/1FZwBRhnl2kLG0tilcvrI0r35Ls8CmWcz4lPZQLIrwIDAQABo38wfTAM
BgNVHRMBAf8EAjAAMBwGA1UdEQQVMBOBEXRlc3RAeGFkZXM0ai50ZXN0MA8GA1Ud
DwEB/wQFAwMHgAAwHQYDVR0OBBYEFC+TXtNvUh6XVhWCH5rS19vqdG0VMB8GA1Ud
IwQYMBaAFC2RApdAgAElMmZOXrgB9Up9v4J3MA0GCSqGSIb3DQEBCwUAA4IBgQA9
aQ/8DMcV9hI03FugNunyyYddXrepRk1hMauQqL1iDiEa4MJQkm+rDR+cwHYuYkNi
3QkrjNmxUY8Hl3Er56GUoCptloJiceBXIE5ziHpye8QGpRmOhnnGDaLdSUoZtgIh
XKCXVY7zD0lCRrFxlTJzgBuwAFRzWTw9jvu3M9ESc8g9N/iaJSAz4/Q5wt3Q/EcY
ImC3bwf4ixIykSzavgUe2NSeA6FPihFs6plghLyTcZDiucMEoiqsgwlEK8bBUw3e
/VI+i76IE0jHuJgBTFQIGEH5C6EzolloU90TpECCxFFQH4hKlwcQJGqqPXECI0It
DXEk9AgNxS4IWnJpa+MLGPKQQVrGE4mA7c99w5v9EOECvYSodxSlVOG1Kjsb+tV9
dxVssxd5mtGAms4is3hCulNob8wpfL8Bs9V0VzxW37FigQv9bjj6jo/3fWPnrrH/
Co1t5jOR6MraY+TNdDxRIKgYS4rSGbX5VaYJO0pzWbjebcLf5c1bBvg1h81wVtk=
-----END CERTIFICATE-----
