X.509 Certificate Information:
	Version: 3
	Serial Number (hex): 28d9fb43875a2dd4ecafeec74969f84603faa26d
	Issuer: CN=Testing Authority
	Validity:
		Not Before: Mon Feb 20 15:21:42 UTC 2040
		Not After: Fri Apr 20 14:21:41 UTC 2040
	Subject: CN=Expired Test User
	Subject Public Key Algorithm: RSA
	Algorithm Security Level: High (3072 bits)
		Modulus (bits 3072):
			00:b2:e3:90:6c:1f:f6:4c:4a:e3:ee:7f:2c:f5:82:b5
			a5:ea:fb:e4:fb:7c:c0:13:7d:ac:47:4c:5a:9e:b1:84
			3f:12:aa:f7:60:86:54:b8:02:a0:83:0a:0c:09:e9:d2
			0c:14:d0:57:8f:d4:97:c4:09:a1:ba:19:37:22:03:ae
			0c:24:f4:57:7d:9f:af:87:ae:a5:ce:76:29:7c:4f:d2
			55:51:e2:e4:ed:c3:6e:7b:cf:02:41:f8:eb:6e:e2:e8
			4d:8b:7c:b0:a4:7a:7f:b5:c6:39:52:2e:dc:dd:7e:2a
			ac:fd:16:21:3b:d9:2e:6a:48:de:74:fd:d2:eb:96:5d
			dd:c7:cf:3f:35:23:3c:c0:26:cb:24:89:7a:2a:04:0d
			ac:b3:a0:1b:bd:61:31:58:30:bc:02:41:8c:05:79:6e
			38:47:82:63:d8:94:15:66:c5:ab:52:20:ce:31:94:90
			ff:70:ab:24:e8:77:0f:6d:85:01:37:72:02:f6:67:d3
			3d:99:c5:40:4a:7b:66:75:dd:41:52:33:d3:f3:2f:41
			b1:88:fd:8b:0a:78:7d:e4:8a:02:14:7c:08:78:01:69
			a2:cc:ba:9d:94:07:71:4b:4b:8d:06:b4:06:c3:7d:08
			8d:10:60:08:e6:2b:4e:93:32:5a:87:e7:54:11:7a:39
			e6:8b:1d:f9:f7:8c:02:3f:37:37:9e:13:2c:d6:47:55
			4c:9d:51:d4:99:22:f0:33:26:b5:98:3c:07:13:b7:e5
			33:6a:03:b5:b5:ff:dd:ff:eb:86:dc:0e:38:5c:e7:6f
			13:97:87:9d:02:b4:bf:76:db:e6:93:7e:79:fe:c5:ad
			eb:d6:60:ec:2b:6e:27:41:85:2d:79:8e:45:fd:b9:de
			1a:26:af:84:50:0e:fc:0b:b9:80:3e:79:32:22:67:a2
			c0:e3:23:c7:4d:ba:f2:30:7d:96:10:e9:97:68:d7:c7
			da:e4:43:82:8c:c5:61:f2:7f:69:36:89:dc:17:8c:e7
			8d
		Exponent (bits 24):
			01:00:01
	Extensions:
		Basic Constraints (critical):
			Certificate Authority (CA): FALSE
		Subject Alternative Name (not critical):
			RFC822Name: test@xades4j.test
		Key Usage (critical):
			Digital signature.
		Subject Key Identifier (not critical):
			b5ee90025a04bbcaaa813b75fd87ccfcc6e40167
		Authority Key Identifier (not critical):
			2d9102974080012532664e5eb801f54a7dbf8277
	Signature Algorithm: RSA-SHA256
	Signature:
		72:51:be:9d:e4:78:66:91:bd:2a:85:45:5b:55:20:cb
		0d:02:a7:f6:7f:25:78:13:35:5f:9a:9a:b4:6b:d1:5b
		73:f4:1c:b8:9a:8d:70:07:e0:dd:33:f1:e7:ce:ec:6a
		26:3b:f6:5d:37:e0:41:35:ed:b4:20:37:62:7a:f6:02
		91:cc:b6:49:7a:4f:75:48:c0:65:d3:a9:31:e3:9a:05
		08:c0:90:9d:95:d1:31:ae:8d:b3:53:a6:c8:95:1d:c1
		db:7e:4c:e4:27:da:c8:85:a7:f8:97:fb:38:ad:69:30
		1f:c1:de:f9:bc:e1:05:99:31:cf:d7:78:69:74:b0:94
		45:c8:49:dd:69:a0:a5:f6:07:b5:f7:98:0c:d7:ae:d7
		63:99:da:a2:e0:c9:93:d6:a1:85:b9:e1:62:a4:9b:2c
		1b:de:0a:d4:a3:f8:3a:96:bc:d9:ad:72:19:1b:2b:81
		7c:5d:5b:cc:bd:44:c0:c4:3e:a7:72:e2:ff:c3:81:f4
		99:4c:01:05:e9:01:86:1a:2a:b9:21:20:f9:51:60:5c
		e5:17:9a:67:27:f5:55:ff:65:fe:e3:36:82:b2:45:31
		34:f9:39:a7:3b:78:66:17:74:c2:33:dd:3a:c9:e1:c8
		0c:4b:ea:9f:b5:88:3c:35:1a:c3:b6:f3:82:b6:4f:a5
		8b:78:aa:b5:69:fc:ba:78:02:5f:05:7c:fd:3c:f8:a9
		7f:1d:82:db:76:c1:78:52:33:26:3d:fa:c4:91:67:00
		c8:4e:d1:71:b4:56:7f:e8:0c:e9:b1:b0:f2:98:6a:ce
		c9:75:ed:28:c1:35:10:a1:75:59:9a:2d:95:00:d6:65
		9b:cb:10:d1:f3:94:a2:71:97:47:20:20:c3:6c:09:10
		28:de:48:2c:9d:1e:08:da:79:02:7a:65:ce:be:97:16
		7c:62:03:9d:61:1a:5d:09:d9:49:69:f3:3b:06:25:f0
		40:71:fd:5e:45:87:31:42:e6:95:ea:6d:60:99:10:e5
Other Information:
	Fingerprint:
		sha1:c14bb0f8377d413e45fb39cb6ccdc4273e7b9161
		sha256:c86ef5ccba173c57451cde0e47db8cbfc00d941afb569c7b94ef9f101e551f37
	Public Key ID:
		sha1:b5ee90025a04bbcaaa813b75fd87ccfcc6e40167
		sha256:a07a1a80b534a92f8bf48860c0ccec42d249e934287a29e5769176944e2dce5d
	Public Key PIN:
		pin-sha256:oHoagLU0qS+L9IhgwMzsQtJJ6TQoeinldpF2lE4tzl0=

-----BEGIN CERTIFICATE-----
MIIERTCCAq2gAwIBAgIUKNn7Q4daLdTsr+7HSWn4RgP6om0wDQYJKoZIhvcNAQEL
BQAwHDEaMBgGA1UEAxMRVGVzdGluZyBBdXRob3JpdHkwHhcNNDAwMjIwMTUyMTQy
WhcNNDAwNDIwMTQyMTQxWjAcMRowGAYDVQQDExFFeHBpcmVkIFRlc3QgVXNlcjCC
AaIwDQYJKoZIhvcNAQEBBQADggGPADCCAYoCggGBALLjkGwf9kxK4+5/LPWCtaXq
++T7fMATfaxHTFqesYQ/Eqr3YIZUuAKggwoMCenSDBTQV4/Ul8QJoboZNyIDrgwk
9Fd9n6+HrqXOdil8T9JVUeLk7cNue88CQfjrbuLoTYt8sKR6f7XGOVIu3N1+Kqz9
FiE72S5qSN50/dLrll3dx88/NSM8wCbLJIl6KgQNrLOgG71hMVgwvAJBjAV5bjhH
gmPYlBVmxatSIM4xlJD/cKsk6HcPbYUBN3IC9mfTPZnFQEp7ZnXdQVIz0/MvQbGI
/YsKeH3kigIUfAh4AWmizLqdlAdxS0uNBrQGw30IjRBgCOYrTpMyWofnVBF6OeaL
Hfn3jAI/NzeeEyzWR1VMnVHUmSLwMya1mDwHE7flM2oDtbX/3f/rhtwOOFznbxOX
h50CtL922+aTfnn+xa3r1mDsK24nQYUteY5F/bneGiavhFAO/Au5gD55MiJnosDj
I8dNuvIwfZYQ6Zdo18fa5EOCjMVh8n9pNoncF4znjQIDAQABo38wfTAMBgNVHRMB
Af8EAjAAMBwGA1UdEQQVMBOBEXRlc3RAeGFkZXM0ai50ZXN0MA8GA1UdDwEB/wQF
AwMHgAAwHQYDVR0OBBYEFLXukAJaBLvKqoE7df2HzPzG5AFnMB8GA1UdIwQYMBaA
FC2RApdAgAElMmZOXrgB9Up9v4J3MA0GCSqGSIb3DQEBCwUAA4IBgQByUb6d5Hhm
kb0qhUVbVSDLDQKn9n8leBM1X5qatGvRW3P0HLiajXAH4N0z8efO7GomO/ZdN+BB
Ne20IDdievYCkcy2SXpPdUjAZdOpMeOaBQjAkJ2V0TGujbNTpsiVHcHbfkzkJ9rI
haf4l/s4rWkwH8He+bzhBZkxz9d4aXSwlEXISd1poKX2B7X3mAzXrtdjmdqi4MmT
1qGFueFipJssG94K1KP4Opa82a1yGRsrgXxdW8y9RMDEPqdy4v/DgfSZTAEF6QGG
Giq5ISD5UWBc5ReaZyf1Vf9l/uM2grJFMTT5Oac7eGYXdMIz3TrJ4cgMS+qftYg8
NRrDtvOCtk+li3iqtWn8ungCXwV8/Tz4qX8dgtt2wXhSMyY9+sSRZwDITtFxtFZ/
6AzpsbDymGrOyXXtKME1EKF1WZotlQDWZZvLENHzlKJxl0cgIMNsCRAo3kgsnR4I
2nkCemXOvpcWfGIDnWEaXQnZSWnzOwYl8EBx/V5FhzFC5pXqbWCZEOU=
-----END CERTIFICATE-----
